target datalayout = "e-m:e-p270:32:32-p271:32:32-p272:64:64-i64:64-i128:128-f80:128-n8:16:32:64-S128"
target triple = "x86_64-pc-linux-gnu"

%struct.Aig_Obj_t_ = type { %union.anon, ptr, ptr, i64, i32, i32, %union.anon.0 }
%union.anon = type { ptr }
%union.anon.0 = type { ptr }
%struct.Aig_Man_t_ = type { ptr, ptr, ptr, ptr, ptr, ptr, ptr, %struct.Aig_Obj_t_, i32, i32, i32, i32, i32, i32, [7 x i32], i32, ptr, i32, ptr, i32, ptr, i32, i32, i32, ptr, i32, i32, i32, i32, i32, ptr, ptr, i32, ptr, ptr, i32, ptr, ptr, i32, i32, i32, ptr, ptr, ptr, ptr, ptr, ptr, ptr, ptr, ptr, ptr, ptr, ptr, ptr, ptr, i32, ptr, ptr, ptr, ptr, i32, i64, i64, i64, ptr, ptr }
%struct.Vec_Ptr_t_ = type { i32, i32, ptr }
%struct.Vec_Str_t_ = type { i32, i32, ptr }

; Function Attrs: inlinehint nounwind uwtable
define internal i32 @Saig_ManPoNum(ptr noundef %0) #2 {
  %2 = alloca ptr, align 8
  store ptr %0, ptr %2, align 8, !tbaa !3
  %3 = load ptr, ptr %2, align 8, !tbaa !3
  %4 = getelementptr inbounds nuw %struct.Aig_Man_t_, ptr %3, i32 0, i32 10
  %5 = load i32, ptr %4, align 8, !tbaa !58
  ret i32 %5
}

; Function Attrs: inlinehint nounwind uwtable
define internal void @Vec_StrGrow(ptr noundef %0, i32 noundef %1) #2 {
  %3 = alloca ptr, align 8
  %4 = alloca i32, align 4
  store ptr %0, ptr %3, align 8, !tbaa !65
  store i32 %1, ptr %4, align 4, !tbaa !10
  %5 = load ptr, ptr %3, align 8, !tbaa !65
  %6 = getelementptr inbounds nuw %struct.Vec_Str_t_, ptr %5, i32 0, i32 0
  %7 = load i32, ptr %6, align 8, !tbaa !72
  %8 = load i32, ptr %4, align 4, !tbaa !10
  %9 = icmp sge i32 %7, %8
  br i1 %9, label %10, label %11

10:                                               ; preds = %2
  br label %36

11:                                               ; preds = %2
  %12 = load ptr, ptr %3, align 8, !tbaa !65
  %13 = getelementptr inbounds nuw %struct.Vec_Str_t_, ptr %12, i32 0, i32 2
  %14 = load ptr, ptr %13, align 8, !tbaa !73
  %15 = icmp ne ptr %14, null
  br i1 %15, label %16, label %24

16:                                               ; preds = %11
  %17 = load ptr, ptr %3, align 8, !tbaa !65
  %18 = getelementptr inbounds nuw %struct.Vec_Str_t_, ptr %17, i32 0, i32 2
  %19 = load ptr, ptr %18, align 8, !tbaa !73
  %20 = load i32, ptr %4, align 4, !tbaa !10
  %21 = sext i32 %20 to i64
  %22 = mul i64 1, %21
  %23 = call ptr @realloc(ptr noundef %19, i64 noundef %22) #14
  br label %29

24:                                               ; preds = %11
  %25 = load i32, ptr %4, align 4, !tbaa !10
  %26 = sext i32 %25 to i64
  %27 = mul i64 1, %26
  %28 = call noalias ptr @malloc(i64 noundef %27) #12
  br label %29

29:                                               ; preds = %24, %16
  %30 = phi ptr [ %23, %16 ], [ %28, %24 ]
  %31 = load ptr, ptr %3, align 8, !tbaa !65
  %32 = getelementptr inbounds nuw %struct.Vec_Str_t_, ptr %31, i32 0, i32 2
  store ptr %30, ptr %32, align 8, !tbaa !73
  %33 = load i32, ptr %4, align 4, !tbaa !10
  %34 = load ptr, ptr %3, align 8, !tbaa !65
  %35 = getelementptr inbounds nuw %struct.Vec_Str_t_, ptr %34, i32 0, i32 0
  store i32 %33, ptr %35, align 8, !tbaa !72
  br label %36

36:                                               ; preds = %29, %10
  ret void
}

; Function Attrs: inlinehint nounwind uwtable
define internal i32 @Saig_SynchTernary(i32 noundef %0) #2 {
  %2 = alloca i32, align 4
  store i32 %0, ptr %2, align 4, !tbaa !10
  %3 = load i32, ptr %2, align 4, !tbaa !10
  %4 = icmp ne i32 %3, 0
  br i1 %4, label %5, label %9

5:                                                ; preds = %1
  %6 = load i32, ptr %2, align 4, !tbaa !10
  %7 = icmp eq i32 %6, 1
  %8 = select i1 %7, i32 1431655765, i32 -1
  br label %10

9:                                                ; preds = %1
  br label %10

10:                                               ; preds = %9, %5
  %11 = phi i32 [ %8, %5 ], [ 0, %9 ]
  ret i32 %11
}

; Function Attrs: inlinehint nounwind uwtable
define internal ptr @Saig_ManLo(ptr noundef %0, i32 noundef %1) #2 {
  %3 = alloca ptr, align 8
  %4 = alloca i32, align 4
  store ptr %0, ptr %3, align 8, !tbaa !3
  store i32 %1, ptr %4, align 4, !tbaa !10
  %5 = load ptr, ptr %3, align 8, !tbaa !3
  %6 = getelementptr inbounds nuw %struct.Aig_Man_t_, ptr %5, i32 0, i32 2
  %7 = load ptr, ptr %6, align 8, !tbaa !32
  %8 = load ptr, ptr %3, align 8, !tbaa !3
  %9 = call i32 @Saig_ManPiNum(ptr noundef %8)
  %10 = load i32, ptr %4, align 4, !tbaa !10
  %11 = add nsw i32 %9, %10
  %12 = call ptr @Vec_PtrEntry(ptr noundef %7, i32 noundef %11)
  ret ptr %12
}

; Function Attrs: inlinehint nounwind uwtable
define internal ptr @Saig_ManLi(ptr noundef %0, i32 noundef %1) #2 {
  %3 = alloca ptr, align 8
  %4 = alloca i32, align 4
  store ptr %0, ptr %3, align 8, !tbaa !3
  store i32 %1, ptr %4, align 4, !tbaa !10
  %5 = load ptr, ptr %3, align 8, !tbaa !3
  %6 = getelementptr inbounds nuw %struct.Aig_Man_t_, ptr %5, i32 0, i32 3
  %7 = load ptr, ptr %6, align 8, !tbaa !51
  %8 = load ptr, ptr %3, align 8, !tbaa !3
  %9 = call i32 @Saig_ManPoNum(ptr noundef %8)
  %10 = load i32, ptr %4, align 4, !tbaa !10
  %11 = add nsw i32 %9, %10
  %12 = call ptr @Vec_PtrEntry(ptr noundef %7, i32 noundef %11)
  ret ptr %12
}

; Function Attrs: inlinehint nounwind uwtable
define internal i32 @Saig_ManRegNum(ptr noundef %0) #2 {
  %2 = alloca ptr, align 8
  store ptr %0, ptr %2, align 8, !tbaa !3
  %3 = load ptr, ptr %2, align 8, !tbaa !3
  %4 = getelementptr inbounds nuw %struct.Aig_Man_t_, ptr %3, i32 0, i32 8
  %5 = load i32, ptr %4, align 8, !tbaa !35
  ret i32 %5
}

; Function Attrs: inlinehint nounwind uwtable
define internal void @Vec_StrPush(ptr noundef %0, i8 noundef signext %1) #2 {
  %3 = alloca ptr, align 8
  %4 = alloca i8, align 1
  store ptr %0, ptr %3, align 8, !tbaa !65
  store i8 %1, ptr %4, align 1, !tbaa !42
  %5 = load ptr, ptr %3, align 8, !tbaa !65
  %6 = getelementptr inbounds nuw %struct.Vec_Str_t_, ptr %5, i32 0, i32 1
  %7 = load i32, ptr %6, align 4, !tbaa !70
  %8 = load ptr, ptr %3, align 8, !tbaa !65
  %9 = getelementptr inbounds nuw %struct.Vec_Str_t_, ptr %8, i32 0, i32 0
  %10 = load i32, ptr %9, align 8, !tbaa !72
  %11 = icmp eq i32 %7, %10
  br i1 %11, label %12, label %26

12:                                               ; preds = %2
  %13 = load ptr, ptr %3, align 8, !tbaa !65
  %14 = getelementptr inbounds nuw %struct.Vec_Str_t_, ptr %13, i32 0, i32 0
  %15 = load i32, ptr %14, align 8, !tbaa !72
  %16 = icmp slt i32 %15, 16
  br i1 %16, label %17, label %19

17:                                               ; preds = %12
  %18 = load ptr, ptr %3, align 8, !tbaa !65
  call void @Vec_StrGrow(ptr noundef %18, i32 noundef 16)
  br label %25

19:                                               ; preds = %12
  %20 = load ptr, ptr %3, align 8, !tbaa !65
  %21 = load ptr, ptr %3, align 8, !tbaa !65
  %22 = getelementptr inbounds nuw %struct.Vec_Str_t_, ptr %21, i32 0, i32 0
  %23 = load i32, ptr %22, align 8, !tbaa !72
  %24 = mul nsw i32 2, %23
  call void @Vec_StrGrow(ptr noundef %20, i32 noundef %24)
  br label %25

25:                                               ; preds = %19, %17
  br label %26

26:                                               ; preds = %25, %2
  %27 = load i8, ptr %4, align 1, !tbaa !42
  %28 = load ptr, ptr %3, align 8, !tbaa !65
  %29 = getelementptr inbounds nuw %struct.Vec_Str_t_, ptr %28, i32 0, i32 2
  %30 = load ptr, ptr %29, align 8, !tbaa !73
  %31 = load ptr, ptr %3, align 8, !tbaa !65
  %32 = getelementptr inbounds nuw %struct.Vec_Str_t_, ptr %31, i32 0, i32 1
  %33 = load i32, ptr %32, align 4, !tbaa !70
  %34 = add nsw i32 %33, 1
  store i32 %34, ptr %32, align 4, !tbaa !70
  %35 = sext i32 %33 to i64
  %36 = getelementptr inbounds i8, ptr %30, i64 %35
  store i8 %27, ptr %36, align 1, !tbaa !42
  ret void
}

; Function Attrs: inlinehint nounwind uwtable
define internal ptr @Vec_PtrEntry(ptr noundef %0, i32 noundef %1) #2 {
  %3 = alloca ptr, align 8
  %4 = alloca i32, align 4
  store ptr %0, ptr %3, align 8, !tbaa !8
  store i32 %1, ptr %4, align 4, !tbaa !10
  %5 = load ptr, ptr %3, align 8, !tbaa !8
  %6 = getelementptr inbounds nuw %struct.Vec_Ptr_t_, ptr %5, i32 0, i32 2
  %7 = load ptr, ptr %6, align 8, !tbaa !29
  %8 = load i32, ptr %4, align 4, !tbaa !10
  %9 = sext i32 %8 to i64
  %10 = getelementptr inbounds ptr, ptr %7, i64 %9
  %11 = load ptr, ptr %10, align 8, !tbaa !31
  ret ptr %11
}

; Function Attrs: inlinehint nounwind uwtable
define internal i32 @Saig_ManPiNum(ptr noundef %0) #2 {
  %2 = alloca ptr, align 8
  store ptr %0, ptr %2, align 8, !tbaa !3
  %3 = load ptr, ptr %2, align 8, !tbaa !3
  %4 = getelementptr inbounds nuw %struct.Aig_Man_t_, ptr %3, i32 0, i32 9
  %5 = load i32, ptr %4, align 4, !tbaa !36
  ret i32 %5
}

; Function Attrs: nounwind uwtable
define i32 @Saig_SynchSavePattern(ptr noundef %0, ptr noundef %1, i32 noundef %2, i32 noundef %3, ptr noundef %4) #0 {
  %6 = alloca ptr, align 8
  %7 = alloca ptr, align 8
  %8 = alloca i32, align 4
  %9 = alloca i32, align 4
  %10 = alloca ptr, align 8
  %11 = alloca ptr, align 8
  %12 = alloca ptr, align 8
  %13 = alloca ptr, align 8
  %14 = alloca ptr, align 8
  %15 = alloca i32, align 4
  %16 = alloca i32, align 4
  %17 = alloca i32, align 4
  %18 = alloca i32, align 4
  store ptr %0, ptr %6, align 8, !tbaa !3
  store ptr %1, ptr %7, align 8, !tbaa !8
  store i32 %2, ptr %8, align 4, !tbaa !10
  store i32 %3, ptr %9, align 4, !tbaa !10
  store ptr %4, ptr %10, align 8, !tbaa !65
  call void @llvm.lifetime.start.p0(i64 8, ptr %11) #10
  call void @llvm.lifetime.start.p0(i64 8, ptr %12) #10
  call void @llvm.lifetime.start.p0(i64 8, ptr %13) #10
  call void @llvm.lifetime.start.p0(i64 8, ptr %14) #10
  call void @llvm.lifetime.start.p0(i64 4, ptr %15) #10
  call void @llvm.lifetime.start.p0(i64 4, ptr %16) #10
  call void @llvm.lifetime.start.p0(i64 4, ptr %17) #10
  call void @llvm.lifetime.start.p0(i64 4, ptr %18) #10
  store i32 0, ptr %17, align 4, !tbaa !10
  br label %19

19:                                               ; preds = %52, %5
  %20 = load i32, ptr %17, align 4, !tbaa !10
  %21 = load ptr, ptr %6, align 8, !tbaa !3
  %22 = call i32 @Saig_ManPiNum(ptr noundef %21)
  %23 = icmp slt i32 %20, %22
  br i1 %23, label %24, label %30

24:                                               ; preds = %19
  %25 = load ptr, ptr %6, align 8, !tbaa !3
  %26 = getelementptr inbounds nuw %struct.Aig_Man_t_, ptr %25, i32 0, i32 2
  %27 = load ptr, ptr %26, align 8, !tbaa !32
  %28 = load i32, ptr %17, align 4, !tbaa !10
  %29 = call ptr @Vec_PtrEntry(ptr noundef %27, i32 noundef %28)
  store ptr %29, ptr %11, align 8, !tbaa !12
  br label %30

30:                                               ; preds = %24, %19
  %31 = phi i1 [ false, %19 ], [ true, %24 ]
  br i1 %31, label %32, label %55

32:                                               ; preds = %30
  %33 = load ptr, ptr %7, align 8, !tbaa !8
  %34 = load ptr, ptr %11, align 8, !tbaa !12
  %35 = getelementptr inbounds nuw %struct.Aig_Obj_t_, ptr %34, i32 0, i32 5
  %36 = load i32, ptr %35, align 4, !tbaa !14
  %37 = call ptr @Vec_PtrEntry(ptr noundef %33, i32 noundef %36)
  store ptr %37, ptr %14, align 8, !tbaa !16
  %38 = load ptr, ptr %14, align 8, !tbaa !16
  %39 = load i32, ptr %9, align 4, !tbaa !10
  %40 = ashr i32 %39, 4
  %41 = sext i32 %40 to i64
  %42 = getelementptr inbounds i32, ptr %38, i64 %41
  %43 = load i32, ptr %42, align 4, !tbaa !10
  %44 = load i32, ptr %9, align 4, !tbaa !10
  %45 = and i32 %44, 15
  %46 = shl i32 %45, 1
  %47 = lshr i32 %43, %46
  %48 = and i32 %47, 3
  store i32 %48, ptr %16, align 4, !tbaa !10
  %49 = load ptr, ptr %10, align 8, !tbaa !65
  %50 = load i32, ptr %16, align 4, !tbaa !10
  %51 = trunc i32 %50 to i8
  call void @Vec_StrPush(ptr noundef %49, i8 noundef signext %51)
  br label %52

52:                                               ; preds = %32
  %53 = load i32, ptr %17, align 4, !tbaa !10
  %54 = add nsw i32 %53, 1
  store i32 %54, ptr %17, align 4, !tbaa !10
  br label %19, !llvm.loop !67

55:                                               ; preds = %30
  store i32 0, ptr %15, align 4, !tbaa !10
  store i32 0, ptr %17, align 4, !tbaa !10
  br label %56

56:                                               ; preds = %113, %55
  %57 = load i32, ptr %17, align 4, !tbaa !10
  %58 = load ptr, ptr %6, align 8, !tbaa !3
  %59 = call i32 @Saig_ManRegNum(ptr noundef %58)
  %60 = icmp slt i32 %57, %59
  br i1 %60, label %61, label %69

61:                                               ; preds = %56
  %62 = load ptr, ptr %6, align 8, !tbaa !3
  %63 = load i32, ptr %17, align 4, !tbaa !10
  %64 = call ptr @Saig_ManLi(ptr noundef %62, i32 noundef %63)
  store ptr %64, ptr %12, align 8, !tbaa !12
  br i1 true, label %65, label %69

65:                                               ; preds = %61
  %66 = load ptr, ptr %6, align 8, !tbaa !3
  %67 = load i32, ptr %17, align 4, !tbaa !10
  %68 = call ptr @Saig_ManLo(ptr noundef %66, i32 noundef %67)
  store ptr %68, ptr %13, align 8, !tbaa !12
  br label %69

69:                                               ; preds = %65, %61, %56
  %70 = phi i1 [ false, %61 ], [ false, %56 ], [ true, %65 ]
  br i1 %70, label %71, label %116

71:                                               ; preds = %69
  %72 = load ptr, ptr %7, align 8, !tbaa !8
  %73 = load ptr, ptr %12, align 8, !tbaa !12
  %74 = getelementptr inbounds nuw %struct.Aig_Obj_t_, ptr %73, i32 0, i32 5
  %75 = load i32, ptr %74, align 4, !tbaa !14
  %76 = call ptr @Vec_PtrEntry(ptr noundef %72, i32 noundef %75)
  store ptr %76, ptr %14, align 8, !tbaa !16
  %77 = load ptr, ptr %14, align 8, !tbaa !16
  %78 = load i32, ptr %9, align 4, !tbaa !10
  %79 = ashr i32 %78, 4
  %80 = sext i32 %79 to i64
  %81 = getelementptr inbounds i32, ptr %77, i64 %80
  %82 = load i32, ptr %81, align 4, !tbaa !10
  %83 = load i32, ptr %9, align 4, !tbaa !10
  %84 = and i32 %83, 15
  %85 = shl i32 %84, 1
  %86 = lshr i32 %82, %85
  %87 = and i32 %86, 3
  store i32 %87, ptr %16, align 4, !tbaa !10
  %88 = load i32, ptr %16, align 4, !tbaa !10
  %89 = icmp eq i32 %88, 3
  %90 = zext i1 %89 to i32
  %91 = load i32, ptr %15, align 4, !tbaa !10
  %92 = add nsw i32 %91, %90
  store i32 %92, ptr %15, align 4, !tbaa !10
  %93 = load ptr, ptr %7, align 8, !tbaa !8
  %94 = load ptr, ptr %13, align 8, !tbaa !12
  %95 = getelementptr inbounds nuw %struct.Aig_Obj_t_, ptr %94, i32 0, i32 5
  %96 = load i32, ptr %95, align 4, !tbaa !14
  %97 = call ptr @Vec_PtrEntry(ptr noundef %93, i32 noundef %96)
  store ptr %97, ptr %14, align 8, !tbaa !16
  store i32 0, ptr %18, align 4, !tbaa !10
  br label %98

98:                                               ; preds = %109, %71
  %99 = load i32, ptr %18, align 4, !tbaa !10
  %100 = load i32, ptr %8, align 4, !tbaa !10
  %101 = icmp slt i32 %99, %100
  br i1 %101, label %102, label %112

102:                                              ; preds = %98
  %103 = load i32, ptr %16, align 4, !tbaa !10
  %104 = call i32 @Saig_SynchTernary(i32 noundef %103)
  %105 = load ptr, ptr %14, align 8, !tbaa !16
  %106 = load i32, ptr %18, align 4, !tbaa !10
  %107 = sext i32 %106 to i64
  %108 = getelementptr inbounds i32, ptr %105, i64 %107
  store i32 %104, ptr %108, align 4, !tbaa !10
  br label %109

109:                                              ; preds = %102
  %110 = load i32, ptr %18, align 4, !tbaa !10
  %111 = add nsw i32 %110, 1
  store i32 %111, ptr %18, align 4, !tbaa !10
  br label %98, !llvm.loop !68

112:                                              ; preds = %98
  br label %113

113:                                              ; preds = %112
  %114 = load i32, ptr %17, align 4, !tbaa !10
  %115 = add nsw i32 %114, 1
  store i32 %115, ptr %17, align 4, !tbaa !10
  br label %56, !llvm.loop !69

116:                                              ; preds = %69
  %117 = load i32, ptr %15, align 4, !tbaa !10
  call void @llvm.lifetime.end.p0(i64 4, ptr %18) #10
  call void @llvm.lifetime.end.p0(i64 4, ptr %17) #10
  call void @llvm.lifetime.end.p0(i64 4, ptr %16) #10
  call void @llvm.lifetime.end.p0(i64 4, ptr %15) #10
  call void @llvm.lifetime.end.p0(i64 8, ptr %14) #10
  call void @llvm.lifetime.end.p0(i64 8, ptr %13) #10
  call void @llvm.lifetime.end.p0(i64 8, ptr %12) #10
  call void @llvm.lifetime.end.p0(i64 8, ptr %11) #10
  ret i32 %117
}