; Function Attrs: nounwind uwtable
define i32 @Saig_SynchSavePattern(ptr noundef readonly captures(none) %0, ptr noundef readonly captures(none) %1, i32 noundef %2, i32 noundef %3, ptr noundef captures(none) %4) local_unnamed_addr #3 {
  %6 = getelementptr i8, ptr %0, i64 108
  %.val4247 = load i32, ptr %6, align 4, !tbaa !28
  %7 = icmp sgt i32 %.val4247, 0
  br i1 %7, label %.lr.ph, label %.critedge.preheader

.lr.ph:                                           ; preds = %5
  %8 = getelementptr inbounds nuw i8, ptr %0, i64 16
  %9 = getelementptr i8, ptr %1, i64 8
  %10 = ashr i32 %3, 4
  %11 = sext i32 %10 to i64
  %12 = shl i32 %3, 1
  %13 = and i32 %12, 30
  %14 = getelementptr inbounds nuw i8, ptr %4, i64 4
  %.phi.trans.insert.i = getelementptr inbounds nuw i8, ptr %4, i64 8
  br label %61

.critedge.preheader:                              ; preds = %Vec_StrPush.exit, %5
  %15 = getelementptr i8, ptr %0, i64 104
  %.val4151 = load i32, ptr %15, align 8, !tbaa !26
  %16 = icmp sgt i32 %.val4151, 0
  br i1 %16, label %.lr.ph54, label %.critedge2

.lr.ph54:                                         ; preds = %.critedge.preheader
  %17 = getelementptr i8, ptr %0, i64 24
  %.val43 = load ptr, ptr %17, align 8, !tbaa !40
  %18 = getelementptr i8, ptr %0, i64 112
  %19 = getelementptr i8, ptr %.val43, i64 8
  %.val43.val = load ptr, ptr %19, align 8, !tbaa !3
  %20 = getelementptr i8, ptr %0, i64 16
  %.val45 = load ptr, ptr %20, align 8, !tbaa !27
  %21 = getelementptr i8, ptr %.val45, i64 8
  %.val45.val = load ptr, ptr %21, align 8, !tbaa !3
  %22 = getelementptr i8, ptr %1, i64 8
  %.val38 = load ptr, ptr %22, align 8, !tbaa !3
  %23 = ashr i32 %3, 4
  %24 = sext i32 %23 to i64
  %25 = shl i32 %3, 1
  %26 = and i32 %25, 30
  %27 = icmp sgt i32 %2, 0
  br i1 %27, label %.lr.ph50.us.preheader, label %.lr.ph54.split

.lr.ph50.us.preheader:                            ; preds = %.lr.ph54
  %wide.trip.count64 = zext nneg i32 %2 to i64
  br label %.lr.ph50.us

.lr.ph50.us:                                      ; preds = %.lr.ph50.us.preheader, %._crit_edge.us
  %.153.us = phi i32 [ %58, %._crit_edge.us ], [ 0, %.lr.ph50.us.preheader ]
  %.03752.us = phi i32 [ %57, %._crit_edge.us ], [ 0, %.lr.ph50.us.preheader ]
  %.val44.us = load i32, ptr %18, align 8, !tbaa !41
  %28 = add nsw i32 %.val44.us, %.153.us
  %29 = sext i32 %28 to i64
  %30 = getelementptr inbounds ptr, ptr %.val43.val, i64 %29
  %31 = load ptr, ptr %30, align 8, !tbaa !24
  %.val46.us = load i32, ptr %6, align 4, !tbaa !28
  %32 = add nsw i32 %.val46.us, %.153.us
  %33 = sext i32 %32 to i64
  %34 = getelementptr inbounds ptr, ptr %.val45.val, i64 %33
  %35 = load ptr, ptr %34, align 8, !tbaa !24
  %36 = getelementptr inbounds nuw i8, ptr %31, i64 36
  %37 = load i32, ptr %36, align 4, !tbaa !23
  %38 = sext i32 %37 to i64
  %39 = getelementptr inbounds ptr, ptr %.val38, i64 %38
  %40 = load ptr, ptr %39, align 8, !tbaa !24
  %41 = getelementptr inbounds i32, ptr %40, i64 %24
  %42 = load i32, ptr %41, align 4, !tbaa !25
  %43 = lshr i32 %42, %26
  %44 = and i32 %43, 3
  %45 = icmp eq i32 %44, 3
  %46 = zext i1 %45 to i32
  %47 = getelementptr inbounds nuw i8, ptr %35, i64 36
  %48 = load i32, ptr %47, align 4, !tbaa !23
  %49 = sext i32 %48 to i64
  %50 = getelementptr inbounds ptr, ptr %.val38, i64 %49
  %51 = load ptr, ptr %50, align 8, !tbaa !24
  %.not.i.us = icmp eq i32 %44, 0
  %52 = icmp eq i32 %44, 1
  %53 = select i1 %52, i32 1431655765, i32 -1
  %54 = select i1 %.not.i.us, i32 0, i32 %53
  br label %55

55:                                               ; preds = %.lr.ph50.us, %55
  %indvars.iv61 = phi i64 [ 0, %.lr.ph50.us ], [ %indvars.iv.next62, %55 ]
  %56 = getelementptr inbounds nuw i32, ptr %51, i64 %indvars.iv61
  store i32 %54, ptr %56, align 4, !tbaa !25
  %indvars.iv.next62 = add nuw nsw i64 %indvars.iv61, 1
  %exitcond65.not = icmp eq i64 %indvars.iv.next62, %wide.trip.count64
  br i1 %exitcond65.not, label %._crit_edge.us, label %55, !llvm.loop !58

._crit_edge.us:                                   ; preds = %55
  %57 = add nuw nsw i32 %.03752.us, %46
  %58 = add nuw nsw i32 %.153.us, 1
  %.val41.us = load i32, ptr %15, align 8, !tbaa !26
  %59 = icmp slt i32 %58, %.val41.us
  br i1 %59, label %.lr.ph50.us, label %.critedge2, !llvm.loop !59

.lr.ph54.split:                                   ; preds = %.lr.ph54
  %.val44 = load i32, ptr %18, align 8, !tbaa !41
  %60 = sext i32 %.val44 to i64
  %wide.trip.count = zext nneg i32 %.val4151 to i64
  %invariant.gep = getelementptr ptr, ptr %.val43.val, i64 %60
  br label %.critedge

61:                                               ; preds = %.lr.ph, %Vec_StrPush.exit
  %indvars.iv = phi i64 [ 0, %.lr.ph ], [ %indvars.iv.next, %Vec_StrPush.exit ]
  %62 = load ptr, ptr %8, align 8, !tbaa !27
  %63 = getelementptr i8, ptr %62, i64 8
  %.val40 = load ptr, ptr %63, align 8, !tbaa !3
  %64 = getelementptr inbounds nuw ptr, ptr %.val40, i64 %indvars.iv
  %65 = load ptr, ptr %64, align 8, !tbaa !24
  %66 = getelementptr inbounds nuw i8, ptr %65, i64 36
  %67 = load i32, ptr %66, align 4, !tbaa !23
  %.val39 = load ptr, ptr %9, align 8, !tbaa !3
  %68 = sext i32 %67 to i64
  %69 = getelementptr inbounds ptr, ptr %.val39, i64 %68
  %70 = load ptr, ptr %69, align 8, !tbaa !24
  %71 = getelementptr inbounds i32, ptr %70, i64 %11
  %72 = load i32, ptr %71, align 4, !tbaa !25
  %73 = lshr i32 %72, %13
  %74 = trunc i32 %73 to i8
  %75 = and i8 %74, 3
  %76 = load i32, ptr %14, align 4, !tbaa !60
  %77 = load i32, ptr %4, align 8, !tbaa !62
  %78 = icmp eq i32 %76, %77
  br i1 %78, label %79, label %.Vec_StrGrow.exit10_crit_edge.i

.Vec_StrGrow.exit10_crit_edge.i:                  ; preds = %61
  %.pre.i = load ptr, ptr %.phi.trans.insert.i, align 8, !tbaa !63
  br label %Vec_StrPush.exit

79:                                               ; preds = %61
  %80 = icmp slt i32 %76, 16
  br i1 %80, label %81, label %88

81:                                               ; preds = %79
  %82 = load ptr, ptr %.phi.trans.insert.i, align 8, !tbaa !63
  %.not9.i.i = icmp eq ptr %82, null
  br i1 %.not9.i.i, label %85, label %83

83:                                               ; preds = %81
  %84 = tail call dereferenceable_or_null(16) ptr @realloc(ptr noundef nonnull %82, i64 noundef 16) #20
  br label %Vec_StrGrow.exit.i

85:                                               ; preds = %81
  %86 = tail call noalias dereferenceable_or_null(16) ptr @malloc(i64 noundef 16) #21
  br label %Vec_StrGrow.exit.i

Vec_StrGrow.exit.i:                               ; preds = %85, %83
  %87 = phi ptr [ %84, %83 ], [ %86, %85 ]
  store ptr %87, ptr %.phi.trans.insert.i, align 8, !tbaa !63
  store i32 16, ptr %4, align 8, !tbaa !62
  br label %Vec_StrPush.exit

88:                                               ; preds = %79
  %89 = shl nuw nsw i32 %76, 1
  %90 = load ptr, ptr %.phi.trans.insert.i, align 8, !tbaa !63
  %.not9.i9.i = icmp eq ptr %90, null
  %91 = zext nneg i32 %89 to i64
  br i1 %.not9.i9.i, label %94, label %92

92:                                               ; preds = %88
  %93 = tail call ptr @realloc(ptr noundef nonnull %90, i64 noundef %91) #20
  br label %96

94:                                               ; preds = %88
  %95 = tail call noalias ptr @malloc(i64 noundef %91) #21
  br label %96

96:                                               ; preds = %94, %92
  %97 = phi ptr [ %93, %92 ], [ %95, %94 ]
  store ptr %97, ptr %.phi.trans.insert.i, align 8, !tbaa !63
  store i32 %89, ptr %4, align 8, !tbaa !62
  br label %Vec_StrPush.exit

Vec_StrPush.exit:                                 ; preds = %.Vec_StrGrow.exit10_crit_edge.i, %Vec_StrGrow.exit.i, %96
  %98 = phi ptr [ %.pre.i, %.Vec_StrGrow.exit10_crit_edge.i ], [ %97, %96 ], [ %87, %Vec_StrGrow.exit.i ]
  %99 = load i32, ptr %14, align 4, !tbaa !60
  %100 = add nsw i32 %99, 1
  store i32 %100, ptr %14, align 4, !tbaa !60
  %101 = sext i32 %99 to i64
  %102 = getelementptr inbounds i8, ptr %98, i64 %101
  store i8 %75, ptr %102, align 1, !tbaa !35
  %indvars.iv.next = add nuw nsw i64 %indvars.iv, 1
  %.val42 = load i32, ptr %6, align 4, !tbaa !28
  %103 = sext i32 %.val42 to i64
  %104 = icmp slt i64 %indvars.iv.next, %103
  br i1 %104, label %61, label %.critedge.preheader, !llvm.loop !64

.critedge:                                        ; preds = %.lr.ph54.split, %.critedge
  %indvars.iv58 = phi i64 [ 0, %.lr.ph54.split ], [ %indvars.iv.next59, %.critedge ]
  %.03752 = phi i32 [ 0, %.lr.ph54.split ], [ %117, %.critedge ]
  %gep = getelementptr ptr, ptr %invariant.gep, i64 %indvars.iv58
  %105 = load ptr, ptr %gep, align 8, !tbaa !24
  %106 = getelementptr inbounds nuw i8, ptr %105, i64 36
  %107 = load i32, ptr %106, align 4, !tbaa !23
  %108 = sext i32 %107 to i64
  %109 = getelementptr inbounds ptr, ptr %.val38, i64 %108
  %110 = load ptr, ptr %109, align 8, !tbaa !24
  %111 = getelementptr inbounds i32, ptr %110, i64 %24
  %112 = load i32, ptr %111, align 4, !tbaa !25
  %113 = lshr i32 %112, %26
  %114 = and i32 %113, 3
  %115 = icmp eq i32 %114, 3
  %116 = zext i1 %115 to i32
  %117 = add nuw nsw i32 %.03752, %116
  %indvars.iv.next59 = add nuw nsw i64 %indvars.iv58, 1
  %exitcond.not = icmp eq i64 %indvars.iv.next59, %wide.trip.count
  br i1 %exitcond.not, label %.critedge2, label %.critedge, !llvm.loop !59

.critedge2:                                       ; preds = %.critedge, %._crit_edge.us, %.critedge.preheader
  %.037.lcssa = phi i32 [ 0, %.critedge.preheader ], [ %57, %._crit_edge.us ], [ %117, %.critedge ]
  ret i32 %.037.lcssa
}